target datalayout = "e-m:e-p270:32:32-p271:32:32-p272:64:64-i64:64-i128:128-f80:128-n8:16:32:64-S128"
target triple = "x86_64-pc-linux-gnu"

%"struct.cv::softdouble" = type { i64 }

; Function Attrs: mustprogress nounwind uwtable
define linkonce_odr hidden void @_ZN2cv10softdoubleC2Ev(ptr noundef nonnull align 8 dereferenceable(8) %0) unnamed_addr #1 comdat align 2 {
  %2 = alloca ptr, align 8
  store ptr %0, ptr %2, align 8
  %3 = load ptr, ptr %2, align 8
  %4 = getelementptr inbounds %"struct.cv::softdouble", ptr %3, i32 0, i32 0
  store i64 0, ptr %4, align 8
  ret void
}

; Function Attrs: mustprogress nounwind uwtable
define internal void @_ZN2cvL10raiseFlagsEh(i8 noundef zeroext %0) #1 {
  %2 = alloca i8, align 1
  store i8 %0, ptr %2, align 1
  ret void
}

; Function Attrs: mustprogress uwtable
define linkonce_odr hidden void @_ZN2cv10softdouble7fromRawEm(ptr dead_on_unwind noalias writable sret(%"struct.cv::softdouble") align 8 %0, i64 noundef %1) #0 comdat align 2 {
  %3 = alloca ptr, align 8
  %4 = alloca i64, align 8
  store ptr %0, ptr %3, align 8
  store i64 %1, ptr %4, align 8
  call void @_ZN2cv10softdoubleC2Ev(ptr noundef nonnull align 8 dereferenceable(8) %0)
  %5 = load i64, ptr %4, align 8
  %6 = getelementptr inbounds %"struct.cv::softdouble", ptr %0, i32 0, i32 0
  store i64 %5, ptr %6, align 8
  ret void
}

; Function Attrs: mustprogress nounwind uwtable
define internal noundef i64 @_ZN2cvL27softfloat_propagateNaNF64UIEmm(i64 noundef %0, i64 noundef %1) #1 {
  %3 = alloca i64, align 8
  %4 = alloca i64, align 8
  %5 = alloca i64, align 8
  %6 = alloca i8, align 1
  store i64 %0, ptr %4, align 8
  store i64 %1, ptr %5, align 8
  %7 = load i64, ptr %4, align 8
  %8 = and i64 %7, 9221120237041090560
  %9 = icmp eq i64 %8, 9218868437227405312
  br i1 %9, label %10, label %14

10:                                               ; preds = %2
  %11 = load i64, ptr %4, align 8
  %12 = and i64 %11, 2251799813685247
  %13 = icmp ne i64 %12, 0
  br label %14

14:                                               ; preds = %10, %2
  %15 = phi i1 [ false, %2 ], [ %13, %10 ]
  %16 = zext i1 %15 to i8
  store i8 %16, ptr %6, align 1
  %17 = load i8, ptr %6, align 1
  %18 = trunc i8 %17 to i1
  br i1 %18, label %27, label %19

19:                                               ; preds = %14
  %20 = load i64, ptr %5, align 8
  %21 = and i64 %20, 9221120237041090560
  %22 = icmp eq i64 %21, 9218868437227405312
  br i1 %22, label %23, label %34

23:                                               ; preds = %19
  %24 = load i64, ptr %5, align 8
  %25 = and i64 %24, 2251799813685247
  %26 = icmp ne i64 %25, 0
  br i1 %26, label %27, label %34

27:                                               ; preds = %23, %14
  call void @_ZN2cvL10raiseFlagsEh(i8 noundef zeroext 16)
  %28 = load i8, ptr %6, align 1
  %29 = trunc i8 %28 to i1
  br i1 %29, label %30, label %33

30:                                               ; preds = %27
  %31 = load i64, ptr %4, align 8
  %32 = or i64 %31, 2251799813685248
  store i64 %32, ptr %3, align 8
  br label %50

33:                                               ; preds = %27
  br label %34

34:                                               ; preds = %33, %23, %19
  %35 = load i64, ptr %4, align 8
  %36 = xor i64 %35, -1
  %37 = and i64 %36, 9218868437227405312
  %38 = icmp eq i64 %37, 0
  br i1 %38, label %39, label %45

39:                                               ; preds = %34
  %40 = load i64, ptr %4, align 8
  %41 = and i64 %40, 4503599627370495
  %42 = icmp ne i64 %41, 0
  br i1 %42, label %43, label %45

43:                                               ; preds = %39
  %44 = load i64, ptr %4, align 8
  br label %47

45:                                               ; preds = %39, %34
  %46 = load i64, ptr %5, align 8
  br label %47

47:                                               ; preds = %45, %43
  %48 = phi i64 [ %44, %43 ], [ %46, %45 ]
  %49 = or i64 %48, 2251799813685248
  store i64 %49, ptr %3, align 8
  br label %50

50:                                               ; preds = %47, %30
  %51 = load i64, ptr %3, align 8
  ret i64 %51
}

; Function Attrs: mustprogress uwtable
define internal void @_ZN2cvL24softfloat_roundPackToF64Eblm(ptr dead_on_unwind noalias writable sret(%"struct.cv::softdouble") align 8 %0, i1 noundef zeroext %1, i64 noundef %2, i64 noundef %3) #0 {
  %5 = alloca ptr, align 8
  %6 = alloca i8, align 1
  %7 = alloca i64, align 8
  %8 = alloca i64, align 8
  %9 = alloca i8, align 1
  %10 = alloca i8, align 1
  %11 = alloca i64, align 8
  %12 = alloca i64, align 8
  %13 = alloca i8, align 1
  %14 = alloca i64, align 8
  store ptr %0, ptr %5, align 8
  %15 = zext i1 %1 to i8
  store i8 %15, ptr %6, align 1
  store i64 %2, ptr %7, align 8
  store i64 %3, ptr %8, align 8
  store i8 0, ptr %9, align 1
  %16 = load i8, ptr %9, align 1
  %17 = zext i8 %16 to i32
  %18 = icmp eq i32 %17, 0
  %19 = zext i1 %18 to i8
  store i8 %19, ptr %10, align 1
  store i64 512, ptr %11, align 8
  %20 = load i8, ptr %10, align 1
  %21 = trunc i8 %20 to i1
  br i1 %21, label %35, label %22

22:                                               ; preds = %4
  %23 = load i8, ptr %9, align 1
  %24 = zext i8 %23 to i32
  %25 = icmp ne i32 %24, 4
  br i1 %25, label %26, label %35

26:                                               ; preds = %22
  %27 = load i8, ptr %9, align 1
  %28 = zext i8 %27 to i32
  %29 = load i8, ptr %6, align 1
  %30 = trunc i8 %29 to i1
  %31 = select i1 %30, i32 2, i32 3
  %32 = icmp eq i32 %28, %31
  %33 = select i1 %32, i32 1023, i32 0
  %34 = sext i32 %33 to i64
  store i64 %34, ptr %11, align 8
  br label %35

35:                                               ; preds = %26, %22, %4
  %36 = load i64, ptr %8, align 8
  %37 = and i64 %36, 1023
  store i64 %37, ptr %12, align 8
  %38 = load i64, ptr %7, align 8
  %39 = trunc i64 %38 to i16
  %40 = zext i16 %39 to i32
  %41 = icmp sle i32 2045, %40
  br i1 %41, label %42, label %91

42:                                               ; preds = %35
  %43 = load i64, ptr %7, align 8
  %44 = icmp slt i64 %43, 0
  br i1 %44, label %45, label %69

45:                                               ; preds = %42
  %46 = load i64, ptr %7, align 8
  %47 = icmp slt i64 %46, -1
  br i1 %47, label %53, label %48

48:                                               ; preds = %45
  %49 = load i64, ptr %8, align 8
  %50 = load i64, ptr %11, align 8
  %51 = add i64 %49, %50
  %52 = icmp ult i64 %51, -9223372036854775808
  br label %53

53:                                               ; preds = %48, %45
  %54 = phi i1 [ true, %45 ], [ %52, %48 ]
  %55 = zext i1 %54 to i8
  store i8 %55, ptr %13, align 1
  %56 = load i64, ptr %8, align 8
  %57 = load i64, ptr %7, align 8
  %58 = sub nsw i64 0, %57
  %59 = call noundef i64 @_ZN2cvL25softfloat_shiftRightJam64Emm(i64 noundef %56, i64 noundef %58)
  store i64 %59, ptr %8, align 8
  store i64 0, ptr %7, align 8
  %60 = load i64, ptr %8, align 8
  %61 = and i64 %60, 1023
  store i64 %61, ptr %12, align 8
  %62 = load i8, ptr %13, align 1
  %63 = trunc i8 %62 to i1
  br i1 %63, label %64, label %68

64:                                               ; preds = %53
  %65 = load i64, ptr %12, align 8
  %66 = icmp ne i64 %65, 0
  br i1 %66, label %67, label %68

67:                                               ; preds = %64
  call void @_ZN2cvL10raiseFlagsEh(i8 noundef zeroext 2)
  br label %68

68:                                               ; preds = %67, %64, %53
  br label %90

69:                                               ; preds = %42
  %70 = load i64, ptr %7, align 8
  %71 = icmp slt i64 2045, %70
  br i1 %71, label %77, label %72

72:                                               ; preds = %69
  %73 = load i64, ptr %8, align 8
  %74 = load i64, ptr %11, align 8
  %75 = add i64 %73, %74
  %76 = icmp ule i64 -9223372036854775808, %75
  br i1 %76, label %77, label %89

77:                                               ; preds = %72, %69
  call void @_ZN2cvL10raiseFlagsEh(i8 noundef zeroext 5)
  %78 = load i8, ptr %6, align 1
  %79 = trunc i8 %78 to i1
  %80 = zext i1 %79 to i64
  %81 = shl i64 %80, 63
  %82 = add i64 %81, 9218868437227405312
  %83 = add i64 %82, 0
  %84 = load i64, ptr %11, align 8
  %85 = icmp ne i64 %84, 0
  %86 = xor i1 %85, true
  %87 = zext i1 %86 to i64
  %88 = sub i64 %83, %87
  store i64 %88, ptr %14, align 8
  br label %134

89:                                               ; preds = %72
  br label %90

90:                                               ; preds = %89, %68
  br label %91

91:                                               ; preds = %90, %35
  %92 = load i64, ptr %8, align 8
  %93 = load i64, ptr %11, align 8
  %94 = add i64 %92, %93
  %95 = lshr i64 %94, 10
  store i64 %95, ptr %8, align 8
  %96 = load i64, ptr %12, align 8
  %97 = icmp ne i64 %96, 0
  br i1 %97, label %98, label %106

98:                                               ; preds = %91
  call void @_ZN2cvL10raiseFlagsEh(i8 noundef zeroext 1)
  %99 = load i8, ptr %9, align 1
  %100 = zext i8 %99 to i32
  %101 = icmp eq i32 %100, 5
  br i1 %101, label %102, label %105

102:                                              ; preds = %98
  %103 = load i64, ptr %8, align 8
  %104 = or i64 %103, 1
  store i64 %104, ptr %8, align 8
  br label %124

105:                                              ; preds = %98
  br label %106

106:                                              ; preds = %105, %91
  %107 = load i64, ptr %12, align 8
  %108 = xor i64 %107, 512
  %109 = icmp ne i64 %108, 0
  %110 = xor i1 %109, true
  %111 = zext i1 %110 to i32
  %112 = load i8, ptr %10, align 1
  %113 = trunc i8 %112 to i1
  %114 = zext i1 %113 to i32
  %115 = and i32 %111, %114
  %116 = sext i32 %115 to i64
  %117 = xor i64 %116, -1
  %118 = load i64, ptr %8, align 8
  %119 = and i64 %118, %117
  store i64 %119, ptr %8, align 8
  %120 = load i64, ptr %8, align 8
  %121 = icmp ne i64 %120, 0
  br i1 %121, label %123, label %122

122:                                              ; preds = %106
  store i64 0, ptr %7, align 8
  br label %123

123:                                              ; preds = %122, %106
  br label %124

124:                                              ; preds = %123, %102
  %125 = load i8, ptr %6, align 1
  %126 = trunc i8 %125 to i1
  %127 = zext i1 %126 to i64
  %128 = shl i64 %127, 63
  %129 = load i64, ptr %7, align 8
  %130 = shl i64 %129, 52
  %131 = add i64 %128, %130
  %132 = load i64, ptr %8, align 8
  %133 = add i64 %131, %132
  store i64 %133, ptr %14, align 8
  br label %134

134:                                              ; preds = %124, %77
  %135 = load i64, ptr %14, align 8
  call void @_ZN2cv10softdouble7fromRawEm(ptr dead_on_unwind writable sret(%"struct.cv::softdouble") align 8 %0, i64 noundef %135)
  ret void
}

; Function Attrs: mustprogress nounwind uwtable
define internal noundef i64 @_ZN2cvL25softfloat_shiftRightJam64Emm(i64 noundef %0, i64 noundef %1) #1 {
  %3 = alloca i64, align 8
  %4 = alloca i64, align 8
  store i64 %0, ptr %3, align 8
  store i64 %1, ptr %4, align 8
  %5 = load i64, ptr %4, align 8
  %6 = icmp ult i64 %5, 63
  br i1 %6, label %7, label %20

7:                                                ; preds = %2
  %8 = load i64, ptr %3, align 8
  %9 = load i64, ptr %4, align 8
  %10 = lshr i64 %8, %9
  %11 = load i64, ptr %3, align 8
  %12 = load i64, ptr %4, align 8
  %13 = xor i64 %12, -1
  %14 = add i64 %13, 1
  %15 = and i64 %14, 63
  %16 = shl i64 %11, %15
  %17 = icmp ne i64 %16, 0
  %18 = zext i1 %17 to i64
  %19 = or i64 %10, %18
  br label %24

20:                                               ; preds = %2
  %21 = load i64, ptr %3, align 8
  %22 = icmp ne i64 %21, 0
  %23 = zext i1 %22 to i64
  br label %24

24:                                               ; preds = %20, %7
  %25 = phi i64 [ %19, %7 ], [ %23, %20 ]
  ret i64 %25
}

; Function Attrs: mustprogress uwtable
define internal void @_ZN2cvL20softfloat_addMagsF64Emmb(ptr dead_on_unwind noalias writable sret(%"struct.cv::softdouble") align 8 %0, i64 noundef %1, i64 noundef %2, i1 noundef zeroext %3) #0 {
  %5 = alloca ptr, align 8
  %6 = alloca i64, align 8
  %7 = alloca i64, align 8
  %8 = alloca i8, align 1
  %9 = alloca i64, align 8
  %10 = alloca i64, align 8
  %11 = alloca i64, align 8
  %12 = alloca i64, align 8
  %13 = alloca i64, align 8
  %14 = alloca i64, align 8
  %15 = alloca i64, align 8
  %16 = alloca i64, align 8
  store ptr %0, ptr %5, align 8
  store i64 %1, ptr %6, align 8
  store i64 %2, ptr %7, align 8
  %17 = zext i1 %3 to i8
  store i8 %17, ptr %8, align 1
  %18 = load i64, ptr %6, align 8
  %19 = lshr i64 %18, 52
  %20 = and i64 %19, 2047
  store i64 %20, ptr %9, align 8
  %21 = load i64, ptr %6, align 8
  %22 = and i64 %21, 4503599627370495
  store i64 %22, ptr %10, align 8
  %23 = load i64, ptr %7, align 8
  %24 = lshr i64 %23, 52
  %25 = and i64 %24, 2047
  store i64 %25, ptr %11, align 8
  %26 = load i64, ptr %7, align 8
  %27 = and i64 %26, 4503599627370495
  store i64 %27, ptr %12, align 8
  %28 = load i64, ptr %9, align 8
  %29 = load i64, ptr %11, align 8
  %30 = sub nsw i64 %28, %29
  store i64 %30, ptr %13, align 8
  %31 = load i64, ptr %13, align 8
  %32 = icmp ne i64 %31, 0
  br i1 %32, label %59, label %33

33:                                               ; preds = %4
  %34 = load i64, ptr %9, align 8
  %35 = icmp ne i64 %34, 0
  br i1 %35, label %40, label %36

36:                                               ; preds = %33
  %37 = load i64, ptr %6, align 8
  %38 = load i64, ptr %12, align 8
  %39 = add i64 %37, %38
  store i64 %39, ptr %14, align 8
  br label %140

40:                                               ; preds = %33
  %41 = load i64, ptr %9, align 8
  %42 = icmp eq i64 %41, 2047
  br i1 %42, label %43, label %51

43:                                               ; preds = %40
  %44 = load i64, ptr %10, align 8
  %45 = load i64, ptr %12, align 8
  %46 = or i64 %44, %45
  %47 = icmp ne i64 %46, 0
  br i1 %47, label %48, label %49

48:                                               ; preds = %43
  br label %136

49:                                               ; preds = %43
  %50 = load i64, ptr %6, align 8
  store i64 %50, ptr %14, align 8
  br label %140

51:                                               ; preds = %40
  %52 = load i64, ptr %9, align 8
  store i64 %52, ptr %15, align 8
  %53 = load i64, ptr %10, align 8
  %54 = add i64 9007199254740992, %53
  %55 = load i64, ptr %12, align 8
  %56 = add i64 %54, %55
  store i64 %56, ptr %16, align 8
  %57 = load i64, ptr %16, align 8
  %58 = shl i64 %57, 9
  store i64 %58, ptr %16, align 8
  br label %131

59:                                               ; preds = %4
  %60 = load i64, ptr %10, align 8
  %61 = shl i64 %60, 9
  store i64 %61, ptr %10, align 8
  %62 = load i64, ptr %12, align 8
  %63 = shl i64 %62, 9
  store i64 %63, ptr %12, align 8
  %64 = load i64, ptr %13, align 8
  %65 = icmp slt i64 %64, 0
  br i1 %65, label %66, label %95

66:                                               ; preds = %59
  %67 = load i64, ptr %11, align 8
  %68 = icmp eq i64 %67, 2047
  br i1 %68, label %69, label %80

69:                                               ; preds = %66
  %70 = load i64, ptr %12, align 8
  %71 = icmp ne i64 %70, 0
  br i1 %71, label %72, label %73

72:                                               ; preds = %69
  br label %136

73:                                               ; preds = %69
  %74 = load i8, ptr %8, align 1
  %75 = trunc i8 %74 to i1
  %76 = zext i1 %75 to i64
  %77 = shl i64 %76, 63
  %78 = add i64 %77, 9218868437227405312
  %79 = add i64 %78, 0
  store i64 %79, ptr %14, align 8
  br label %140

80:                                               ; preds = %66
  %81 = load i64, ptr %11, align 8
  store i64 %81, ptr %15, align 8
  %82 = load i64, ptr %9, align 8
  %83 = icmp ne i64 %82, 0
  br i1 %83, label %84, label %87

84:                                               ; preds = %80
  %85 = load i64, ptr %10, align 8
  %86 = add i64 %85, 2305843009213693952
  store i64 %86, ptr %10, align 8
  br label %90

87:                                               ; preds = %80
  %88 = load i64, ptr %10, align 8
  %89 = shl i64 %88, 1
  store i64 %89, ptr %10, align 8
  br label %90

90:                                               ; preds = %87, %84
  %91 = load i64, ptr %10, align 8
  %92 = load i64, ptr %13, align 8
  %93 = sub nsw i64 0, %92
  %94 = call noundef i64 @_ZN2cvL25softfloat_shiftRightJam64Emm(i64 noundef %91, i64 noundef %93)
  store i64 %94, ptr %10, align 8
  br label %118

95:                                               ; preds = %59
  %96 = load i64, ptr %9, align 8
  %97 = icmp eq i64 %96, 2047
  br i1 %97, label %98, label %104

98:                                               ; preds = %95
  %99 = load i64, ptr %10, align 8
  %100 = icmp ne i64 %99, 0
  br i1 %100, label %101, label %102

101:                                              ; preds = %98
  br label %136

102:                                              ; preds = %98
  %103 = load i64, ptr %6, align 8
  store i64 %103, ptr %14, align 8
  br label %140

104:                                              ; preds = %95
  %105 = load i64, ptr %9, align 8
  store i64 %105, ptr %15, align 8
  %106 = load i64, ptr %11, align 8
  %107 = icmp ne i64 %106, 0
  br i1 %107, label %108, label %111

108:                                              ; preds = %104
  %109 = load i64, ptr %12, align 8
  %110 = add i64 %109, 2305843009213693952
  store i64 %110, ptr %12, align 8
  br label %114

111:                                              ; preds = %104
  %112 = load i64, ptr %12, align 8
  %113 = shl i64 %112, 1
  store i64 %113, ptr %12, align 8
  br label %114

114:                                              ; preds = %111, %108
  %115 = load i64, ptr %12, align 8
  %116 = load i64, ptr %13, align 8
  %117 = call noundef i64 @_ZN2cvL25softfloat_shiftRightJam64Emm(i64 noundef %115, i64 noundef %116)
  store i64 %117, ptr %12, align 8
  br label %118

118:                                              ; preds = %114, %90
  %119 = load i64, ptr %10, align 8
  %120 = add i64 2305843009213693952, %119
  %121 = load i64, ptr %12, align 8
  %122 = add i64 %120, %121
  store i64 %122, ptr %16, align 8
  %123 = load i64, ptr %16, align 8
  %124 = icmp ult i64 %123, 4611686018427387904
  br i1 %124, label %125, label %130

125:                                              ; preds = %118
  %126 = load i64, ptr %15, align 8
  %127 = add nsw i64 %126, -1
  store i64 %127, ptr %15, align 8
  %128 = load i64, ptr %16, align 8
  %129 = shl i64 %128, 1
  store i64 %129, ptr %16, align 8
  br label %130

130:                                              ; preds = %125, %118
  br label %131

131:                                              ; preds = %130, %51
  %132 = load i8, ptr %8, align 1
  %133 = trunc i8 %132 to i1
  %134 = load i64, ptr %15, align 8
  %135 = load i64, ptr %16, align 8
  call void @_ZN2cvL24softfloat_roundPackToF64Eblm(ptr dead_on_unwind writable sret(%"struct.cv::softdouble") align 8 %0, i1 noundef zeroext %133, i64 noundef %134, i64 noundef %135)
  br label %142

136:                                              ; preds = %101, %72, %48
  %137 = load i64, ptr %6, align 8
  %138 = load i64, ptr %7, align 8
  %139 = call noundef i64 @_ZN2cvL27softfloat_propagateNaNF64UIEmm(i64 noundef %137, i64 noundef %138)
  store i64 %139, ptr %14, align 8
  br label %140

140:                                              ; preds = %136, %102, %73, %49, %36
  %141 = load i64, ptr %14, align 8
  call void @_ZN2cv10softdouble7fromRawEm(ptr dead_on_unwind writable sret(%"struct.cv::softdouble") align 8 %0, i64 noundef %141)
  br label %142

142:                                              ; preds = %140, %131
  ret void
}