; Function Attrs: mustprogress nofree norecurse nosync nounwind willreturn memory(argmem: write) uwtable
define internal fastcc void @_ZN2cvL20softfloat_addMagsF64Emmb(ptr dead_on_unwind noalias nocapture writable writeonly align 8 %0, i64 noundef %1, i64 noundef %2, i1 noundef zeroext %3) unnamed_addr #0 {
  %5 = lshr i64 %1, 52
  %6 = and i64 %5, 2047
  %7 = and i64 %1, 4503599627370495
  %8 = lshr i64 %2, 52
  %9 = and i64 %8, 2047
  %10 = and i64 %2, 4503599627370495
  %11 = sub nsw i64 %6, %9
  %.not = icmp eq i64 %6, %9
  br i1 %.not, label %12, label %21

12:                                               ; preds = %4
  switch i64 %6, label %17 [
    i64 0, label %13
    i64 2047, label %15
  ]

13:                                               ; preds = %12
  %14 = add i64 %10, %1
  br label %_ZN2cvL24softfloat_roundPackToF64Eblm.exit

15:                                               ; preds = %12
  %16 = or i64 %10, %7
  %.not63 = icmp eq i64 %16, 0
  br i1 %.not63, label %_ZN2cvL24softfloat_roundPackToF64Eblm.exit, label %98

17:                                               ; preds = %12
  %18 = or disjoint i64 %7, 9007199254740992
  %19 = add nuw nsw i64 %18, %10
  %20 = shl nuw nsw i64 %19, 9
  br label %69

21:                                               ; preds = %4
  %22 = shl nuw nsw i64 %7, 9
  %23 = shl nuw nsw i64 %10, 9
  %24 = icmp slt i64 %11, 0
  br i1 %24, label %25, label %45

25:                                               ; preds = %21
  %26 = icmp eq i64 %9, 2047
  br i1 %26, label %27, label %30

27:                                               ; preds = %25
  %.not67 = icmp eq i64 %10, 0
  br i1 %.not67, label %28, label %98

28:                                               ; preds = %27
  %29 = select i1 %3, i64 -4503599627370496, i64 9218868437227405312
  br label %_ZN2cvL24softfloat_roundPackToF64Eblm.exit

30:                                               ; preds = %25
  %.not66 = icmp eq i64 %6, 0
  %31 = or disjoint i64 %22, 2305843009213693952
  %32 = shl nuw nsw i64 %7, 10
  %.052 = select i1 %.not66, i64 %32, i64 %31
  %33 = sub nsw i64 0, %11
  %34 = icmp ult i64 %33, 63
  br i1 %34, label %35, label %42

35:                                               ; preds = %30
  %36 = lshr i64 %.052, %33
  %37 = and i64 %11, 63
  %38 = shl i64 %.052, %37
  %39 = icmp ne i64 %38, 0
  %40 = zext i1 %39 to i64
  %41 = or i64 %36, %40
  br label %_ZN2cvL25softfloat_shiftRightJam64Emm.exit

42:                                               ; preds = %30
  %43 = icmp ne i64 %.052, 0
  %44 = zext i1 %43 to i64
  br label %_ZN2cvL25softfloat_shiftRightJam64Emm.exit

45:                                               ; preds = %21
  %46 = icmp eq i64 %6, 2047
  br i1 %46, label %47, label %48

47:                                               ; preds = %45
  %.not65 = icmp eq i64 %7, 0
  br i1 %.not65, label %_ZN2cvL24softfloat_roundPackToF64Eblm.exit, label %98

48:                                               ; preds = %45
  %.not64 = icmp eq i64 %9, 0
  %49 = or disjoint i64 %23, 2305843009213693952
  %50 = shl nuw nsw i64 %10, 10
  %.054 = select i1 %.not64, i64 %50, i64 %49
  %51 = icmp ult i64 %11, 63
  br i1 %51, label %52, label %60

52:                                               ; preds = %48
  %53 = lshr i64 %.054, %11
  %54 = sub nsw i64 0, %11
  %55 = and i64 %54, 63
  %56 = shl i64 %.054, %55
  %57 = icmp ne i64 %56, 0
  %58 = zext i1 %57 to i64
  %59 = or i64 %53, %58
  br label %_ZN2cvL25softfloat_shiftRightJam64Emm.exit

60:                                               ; preds = %48
  %61 = icmp ne i64 %.054, 0
  %62 = zext i1 %61 to i64
  br label %_ZN2cvL25softfloat_shiftRightJam64Emm.exit

_ZN2cvL25softfloat_shiftRightJam64Emm.exit:       ; preds = %60, %52, %42, %35
  %.155 = phi i64 [ %23, %35 ], [ %23, %42 ], [ %59, %52 ], [ %62, %60 ]
  %.153 = phi i64 [ %41, %35 ], [ %44, %42 ], [ %22, %52 ], [ %22, %60 ]
  %.050 = phi i64 [ %9, %35 ], [ %9, %42 ], [ %6, %52 ], [ %6, %60 ]
  %63 = add nuw nsw i64 %.155, 2305843009213693952
  %64 = add nuw nsw i64 %63, %.153
  %65 = icmp ult i64 %64, 4611686018427387904
  br i1 %65, label %66, label %69

66:                                               ; preds = %_ZN2cvL25softfloat_shiftRightJam64Emm.exit
  %67 = add nsw i64 %.050, -1
  %68 = shl nuw nsw i64 %64, 1
  br label %69

69:                                               ; preds = %_ZN2cvL25softfloat_shiftRightJam64Emm.exit, %66, %17
  %.1 = phi i64 [ %67, %66 ], [ %.050, %_ZN2cvL25softfloat_shiftRightJam64Emm.exit ], [ %6, %17 ]
  %.0 = phi i64 [ %68, %66 ], [ %64, %_ZN2cvL25softfloat_shiftRightJam64Emm.exit ], [ %20, %17 ]
  %70 = and i64 %.1, 65535
  %71 = icmp ugt i64 %70, 2044
  br i1 %71, label %72, label %_ZN2cvL25softfloat_shiftRightJam64Emm.exit.i

72:                                               ; preds = %69
  %73 = icmp slt i64 %.1, 0
  br i1 %73, label %74, label %82

74:                                               ; preds = %72
  %75 = sub nsw i64 0, %.1
  %76 = lshr i64 %.0, %75
  %77 = and i64 %.1, 63
  %78 = shl i64 %.0, %77
  %79 = icmp ne i64 %78, 0
  %80 = zext i1 %79 to i64
  %81 = or i64 %76, %80
  br label %_ZN2cvL25softfloat_shiftRightJam64Emm.exit.i

82:                                               ; preds = %72
  %83 = icmp ugt i64 %.1, 2045
  %84 = add nuw i64 %.0, 512
  %85 = icmp slt i64 %84, 0
  %or.cond.i = or i1 %83, %85
  br i1 %or.cond.i, label %86, label %_ZN2cvL25softfloat_shiftRightJam64Emm.exit.i

86:                                               ; preds = %82
  %87 = select i1 %3, i64 -4503599627370496, i64 9218868437227405312
  br label %_ZN2cvL24softfloat_roundPackToF64Eblm.exit

_ZN2cvL25softfloat_shiftRightJam64Emm.exit.i:     ; preds = %82, %74, %69
  %.041.i = phi i64 [ %.0, %69 ], [ %.0, %82 ], [ %81, %74 ]
  %.038.i = phi i64 [ %.1, %69 ], [ 2045, %82 ], [ 0, %74 ]
  %.039.i = and i64 %.041.i, 1023
  %88 = add nuw i64 %.041.i, 512
  %89 = lshr i64 %88, 10
  %.not48.i = icmp eq i64 %.039.i, 512
  %90 = zext i1 %.not48.i to i64
  %91 = xor i64 %90, -1
  %92 = and i64 %89, %91
  %.not49.i = icmp eq i64 %92, 0
  %93 = shl nsw i64 %.038.i, 52
  %94 = select i1 %3, i64 -9223372036854775808, i64 0
  %95 = select i1 %.not49.i, i64 0, i64 %93
  %96 = or disjoint i64 %92, %94
  %97 = add i64 %96, %95
  br label %_ZN2cvL24softfloat_roundPackToF64Eblm.exit

98:                                               ; preds = %47, %27, %15
  %99 = and i64 %1, 9221120237041090560
  %100 = icmp eq i64 %99, 9218868437227405312
  %101 = and i64 %1, 2251799813685247
  %102 = icmp ne i64 %101, 0
  %103 = and i1 %100, %102
  br i1 %103, label %_ZN2cvL27softfloat_propagateNaNF64UIEmm.exit, label %104

104:                                              ; preds = %98
  %105 = and i64 %1, 9218868437227405312
  %106 = icmp ne i64 %105, 9218868437227405312
  %.not12.i = icmp eq i64 %7, 0
  %or.cond13.i = or i1 %106, %.not12.i
  %107 = select i1 %or.cond13.i, i64 %2, i64 %1
  br label %_ZN2cvL27softfloat_propagateNaNF64UIEmm.exit

_ZN2cvL27softfloat_propagateNaNF64UIEmm.exit:     ; preds = %98, %104
  %.0.in.i = phi i64 [ %107, %104 ], [ %1, %98 ]
  %.0.i69 = or i64 %.0.in.i, 2251799813685248
  br label %_ZN2cvL24softfloat_roundPackToF64Eblm.exit

_ZN2cvL24softfloat_roundPackToF64Eblm.exit:       ; preds = %13, %28, %_ZN2cvL27softfloat_propagateNaNF64UIEmm.exit, %15, %47, %_ZN2cvL25softfloat_shiftRightJam64Emm.exit.i, %86
  %storemerge = phi i64 [ %97, %_ZN2cvL25softfloat_shiftRightJam64Emm.exit.i ], [ %87, %86 ], [ %.0.i69, %_ZN2cvL27softfloat_propagateNaNF64UIEmm.exit ], [ %29, %28 ], [ %14, %13 ], [ %1, %15 ], [ %1, %47 ]
  store i64 %storemerge, ptr %0, align 8
  ret void
}